(dp0
(I1
I0
I0
I0
I1
I0
I0
I0
tp1
I-1
s(I0
I0
I0
I0
I1
I0
I0
I0
tp2
I1
s(I1
I0
I0
I0
I1
I1
I1
I1
tp3
I31
s(I0
I1
I1
I1
I0
I1
I0
I1
tp4
I-1
s(I0
I1
I1
I0
I0
I1
I1
I0
tp5
I-1
s(I0
I1
I1
I0
I1
I1
I1
I0
tp6
I-1
s(I1
I1
I1
I1
I1
I1
I0
I1
tp7
I127
s(I1
I0
I1
I0
I1
I1
I1
I0
tp8
I-1
s(I0
I0
I0
I1
I1
I0
I1
I1
tp9
I-1
s(I0
I0
I1
I0
I1
I0
I0
I1
tp10
I-1
s(I1
I0
I0
I0
I0
I0
I1
I0
tp11
I-1
s(I0
I1
I0
I0
I0
I1
I1
I0
tp12
I-1
s(I0
I1
I0
I1
I0
I1
I0
I1
tp13
I-1
s(I1
I1
I0
I1
I1
I1
I1
I1
tp14
I127
s(I1
I0
I1
I1
I0
I0
I0
I0
tp15
I-1
s(I1
I1
I1
I0
I1
I0
I1
I1
tp16
I-1
s(I1
I0
I1
I0
I0
I0
I0
I1
tp17
I-1
s(I0
I0
I1
I0
I0
I1
I0
I0
tp18
I-1
s(I1
I1
I1
I0
I1
I1
I0
I0
tp19
I-1
s(I1
I1
I0
I1
I0
I0
I1
I0
tp20
I-1
s(I0
I0
I1
I0
I0
I0
I1
I1
tp21
I-1
s(I0
I0
I0
I0
I0
I1
I0
I1
tp22
I-1
s(I1
I0
I0
I1
I0
I0
I1
I0
tp23
I-1
s(I1
I0
I1
I0
I1
I1
I0
I0
tp24
I-1
s(I0
I1
I0
I1
I1
I1
I0
I1
tp25
I-1
s(I0
I1
I1
I1
I1
I0
I1
I0
tp26
I-1
s(I1
I0
I1
I0
I1
I0
I1
I1
tp27
I-1
s(I1
I0
I1
I1
I1
I0
I1
I0
tp28
I-1
s(I1
I0
I0
I1
I1
I1
I1
I1
tp29
I63
s(I0
I1
I1
I1
I1
I1
I1
I1
tp30
I127
s(I0
I0
I1
I1
I0
I1
I1
I0
tp31
I-1
s(I1
I1
I0
I0
I0
I0
I1
I0
tp32
I-1
s(I0
I1
I0
I0
I1
I0
I1
I1
tp33
I-1
s(I1
I0
I0
I1
I1
I0
I0
I0
tp34
I-1
s(I1
I1
I1
I1
I0
I1
I1
I0
tp35
I-1
s(I0
I0
I0
I0
I1
I1
I0
I1
tp36
I-1
s(I1
I0
I1
I1
I1
I1
I0
I1
tp37
I-1
s(I0
I1
I0
I0
I1
I1
I0
I0
tp38
I-1
s(I0
I1
I1
I1
I0
I0
I1
I0
tp39
I-1
s(I1
I1
I0
I0
I1
I1
I1
I1
tp40
I63
s(I0
I0
I1
I1
I1
I1
I1
I0
tp41
I31
s(I0
I0
I1
I0
I1
I1
I1
I0
tp42
I-1
s(I1
I1
I0
I0
I1
I0
I0
I0
tp43
I-1
s(I0
I1
I0
I0
I0
I0
I0
I1
tp44
I-1
s(I1
I1
I1
I1
I0
I1
I1
I1
tp45
I127
s(I0
I1
I0
I1
I0
I0
I0
I0
tp46
I-1
s(I0
I0
I0
I1
I1
I1
I0
I0
tp47
I7
s(I1
I0
I1
I1
I0
I1
I0
I1
tp48
I-1
s(I0
I1
I1
I0
I0
I0
I1
I0
tp49
I-1
s(I0
I1
I0
I1
I0
I1
I1
I1
tp50
I-1
s(I1
I0
I1
I0
I0
I0
I1
I0
tp51
I-1
s(I1
I1
I1
I0
I1
I0
I0
I1
tp52
I-1
s(I0
I0
I0
I1
I0
I0
I0
I1
tp53
I-1
s(I1
I0
I0
I0
I0
I1
I1
I0
tp54
I-1
s(I1
I0
I0
I1
I0
I1
I0
I1
tp55
I-1
s(I0
I0
I0
I0
I0
I0
I0
I0
tp56
I0
s(I1
I1
I1
I0
I0
I1
I1
I1
tp57
I63
s(I0
I1
I0
I1
I1
I0
I1
I0
tp58
I-1
s(I0
I1
I0
I0
I1
I1
I0
I1
tp59
I-1
s(I0
I1
I1
I0
I0
I0
I0
I0
tp60
I3
s(I0
I0
I0
I0
I0
I1
I1
I1
tp61
I7
s(I0
I1
I1
I0
I1
I0
I0
I0
tp62
I-1
s(I1
I1
I1
I0
I0
I1
I0
I0
tp63
I-1
s(I0
I0
I1
I1
I0
I0
I1
I1
tp64
I-1
s(I1
I1
I1
I0
I0
I0
I1
I1
tp65
I31
s(I1
I1
I0
I0
I0
I1
I0
I1
tp66
I-1
s(I0
I0
I1
I1
I0
I1
I0
I0
tp67
I-1
s(I1
I1
I1
I1
I1
I0
I0
I0
tp68
I31
s(I0
I0
I0
I0
I1
I0
I1
I0
tp69
I-1
s(I1
I0
I0
I1
I1
I1
I0
I1
tp70
I-1
s(I1
I1
I0
I1
I1
I0
I0
I0
tp71
I-1
s(I1
I1
I1
I0
I1
I1
I1
I0
tp72
I-1
s(I1
I0
I1
I1
I1
I0
I0
I0
tp73
I-1
s(I0
I1
I0
I0
I1
I0
I0
I1
tp74
I-1
s(I0
I1
I1
I1
I0
I1
I1
I1
tp75
I-1
s(I0
I0
I1
I1
I1
I0
I0
I1
tp76
I-1
s(I1
I0
I1
I1
I1
I1
I1
I1
tp77
I127
s(I1
I0
I1
I1
I0
I1
I1
I1
tp78
I-1
s(I1
I0
I0
I0
I1
I0
I1
I1
tp79
I-1
s(I1
I1
I0
I0
I1
I1
I0
I1
tp80
I-1
s(I0
I1
I0
I0
I0
I1
I0
I0
tp81
I-1
s(I1
I0
I0
I0
I1
I1
I0
I0
tp82
I-1
s(I0
I0
I0
I1
I1
I0
I0
I1
tp83
I-1
s(I1
I0
I1
I1
I0
I0
I1
I0
tp84
I-1
s(I0
I1
I0
I0
I0
I0
I1
I1
tp85
I-1
s(I0
I1
I1
I0
I0
I1
I0
I1
tp86
I-1
s(I1
I1
I1
I0
I0
I0
I0
I0
tp87
I7
s(I1
I1
I1
I1
I1
I1
I1
I0
tp88
I127
s(I1
I1
I1
I1
I1
I1
I1
I1
tp89
I255
s(I1
I1
I0
I1
I1
I0
I1
I1
tp90
I-1
s(I0
I0
I1
I0
I1
I0
I1
I0
tp91
I-1
s(I1
I0
I0
I0
I0
I0
I0
I1
tp92
I3
s(I0
I0
I0
I1
I0
I1
I0
I0
tp93
I-1
s(I1
I0
I0
I1
I0
I0
I0
I0
tp94
I-1
s(I1
I1
I0
I1
I1
I1
I0
I0
tp95
I-1
s(I0
I0
I0
I1
I0
I0
I1
I1
tp96
I-1
s(I1
I0
I0
I1
I0
I1
I1
I1
tp97
I-1
s(I0
I0
I1
I0
I0
I1
I1
I1
tp98
I-1
s(I0
I1
I1
I0
I1
I1
I0
I1
tp99
I-1
s(I1
I0
I1
I0
I1
I1
I1
I1
tp100
I-1
s(I1
I1
I0
I1
I0
I0
I0
I1
tp101
I-1
s(I0
I0
I1
I0
I0
I0
I0
I0
tp102
I1
s(I1
I1
I0
I0
I0
I0
I0
I0
tp103
I3
s(I0
I0
I1
I1
I0
I0
I0
I1
tp104
I-1
s(I1
I0
I0
I1
I1
I0
I1
I0
tp105
I-1
s(I0
I1
I0
I1
I1
I1
I1
I0
tp106
I-1
s(I1
I1
I0
I0
I0
I1
I1
I1
tp107
I31
s(I0
I1
I0
I0
I1
I1
I1
I0
tp108
I-1
s(I1
I0
I1
I0
I1
I0
I0
I0
tp109
I-1
s(I1
I1
I1
I1
I0
I0
I1
I1
tp110
I63
s(I0
I1
I1
I1
I1
I1
I0
I0
tp111
I31
s(I0
I0
I1
I1
I1
I1
I0
I0
tp112
I15
s(I1
I1
I1
I1
I0
I1
I0
I0
tp113
I-1
s(I1
I1
I0
I0
I1
I0
I1
I0
tp114
I-1
s(I0
I0
I1
I1
I1
I0
I1
I1
tp115
I-1
s(I0
I0
I0
I1
I1
I1
I1
I0
tp116
I15
s(I1
I0
I0
I0
I1
I0
I0
I1
tp117
I-1
s(I0
I1
I1
I1
I0
I0
I0
I1
tp118
I-1
s(I1
I0
I1
I1
I1
I0
I1
I1
tp119
I-1
s(I0
I1
I1
I1
I1
I0
I0
I0
tp120
I15
s(I0
I0
I1
I0
I1
I1
I0
I1
tp121
I-1
s(I0
I1
I1
I0
I0
I1
I1
I1
tp122
I-1
s(I1
I0
I0
I0
I0
I1
I0
I0
tp123
I-1
s(I0
I1
I0
I1
I0
I0
I1
I1
tp124
I-1
s(I0
I1
I1
I1
I1
I0
I1
I1
tp125
I-1
s(I1
I0
I0
I0
I0
I0
I1
I1
tp126
I7
s(I1
I0
I1
I0
I0
I1
I0
I1
tp127
I-1
s(I0
I1
I0
I1
I0
I1
I0
I0
tp128
I-1
s(I0
I1
I1
I0
I1
I0
I1
I0
tp129
I-1
s(I1
I1
I1
I0
I1
I0
I1
I0
tp130
I-1
s(I1
I1
I0
I1
I0
I1
I0
I0
tp131
I-1
s(I0
I0
I1
I0
I0
I1
I0
I1
tp132
I-1
s(I0
I0
I0
I0
I0
I0
I1
I1
tp133
I3
s(I0
I1
I0
I1
I1
I0
I0
I1
tp134
I-1
s(I1
I1
I0
I1
I0
I0
I1
I1
tp135
I-1
s(I0
I0
I0
I0
I0
I1
I0
I0
tp136
I1
s(I0
I1
I1
I0
I0
I0
I1
I1
tp137
I-1
s(I0
I0
I0
I1
I0
I1
I1
I0
tp138
I-1
s(I1
I0
I1
I0
I1
I1
I0
I1
tp139
I-1
s(I1
I0
I1
I0
I0
I0
I1
I1
tp140
I-1
s(I1
I1
I0
I1
I0
I1
I1
I0
tp141
I-1
s(I0
I1
I1
I1
I1
I0
I0
I1
tp142
I-1
s(I1
I1
I1
I1
I0
I0
I0
I1
tp143
I31
s(I0
I0
I0
I0
I1
I0
I0
I1
tp144
I-1
s(I1
I0
I0
I1
I1
I1
I1
I0
tp145
I-1
s(I1
I0
I0
I0
I1
I1
I1
I0
tp146
I-1
s(I0
I1
I0
I0
I1
I0
I1
I0
tp147
I-1
s(I0
I1
I1
I1
I0
I1
I0
I0
tp148
I-1
s(I1
I0
I1
I1
I1
I1
I0
I0
tp149
I-1
s(I1
I1
I1
I1
I1
I1
I0
I0
tp150
I63
s(I0
I1
I1
I1
I0
I0
I1
I1
tp151
I-1
s(I0
I0
I1
I0
I1
I0
I0
I0
tp152
I-1
s(I1
I1
I0
I0
I1
I1
I1
I0
tp153
I-1
s(I0
I1
I0
I0
I0
I1
I1
I1
tp154
I-1
s(I1
I1
I0
I1
I1
I0
I0
I1
tp155
I-1
s(I1
I1
I0
I1
I1
I1
I1
I0
tp156
I-1
s(I0
I0
I0
I1
I1
I0
I1
I0
tp157
I-1
s(I1
I0
I1
I1
I0
I0
I0
I1
tp158
I-1
s(I0
I1
I0
I0
I0
I0
I0
I0
tp159
I1
s(I0
I0
I0
I0
I1
I1
I1
I0
tp160
I7
s(I0
I1
I0
I1
I0
I0
I0
I1
tp161
I-1
s(I1
I1
I1
I1
I1
I0
I1
I1
tp162
I127
s(I1
I1
I1
I0
I1
I1
I0
I1
tp163
I-1
s(I1
I0
I1
I0
I0
I1
I1
I1
tp164
I-1
s(I0
I0
I1
I0
I0
I0
I1
I0
tp165
I-1
s(I1
I0
I0
I1
I0
I0
I1
I1
tp166
I-1
s(I0
I1
I0
I1
I1
I1
I0
I0
tp167
I-1
s(I0
I0
I0
I1
I0
I0
I0
I0
tp168
I1
s(I1
I0
I0
I1
I0
I1
I0
I0
tp169
I-1
s(I0
I0
I0
I0
I0
I0
I0
I1
tp170
I1
s(I1
I0
I1
I0
I1
I0
I1
I0
tp171
I-1
s(I0
I1
I0
I1
I1
I0
I1
I1
tp172
I-1
s(I0
I1
I1
I1
I1
I1
I1
I0
tp173
I63
s(I1
I1
I1
I0
I0
I1
I0
I1
tp174
I-1
s(I1
I1
I0
I0
I0
I0
I1
I1
tp175
I15
s(I0
I0
I1
I1
I0
I0
I1
I0
tp176
I-1
s(I1
I0
I0
I1
I1
I0
I0
I1
tp177
I-1
s(I0
I0
I0
I0
I1
I1
I0
I0
tp178
I3
s(I1
I1
I0
I0
I0
I1
I0
I0
tp179
I-1
s(I0
I0
I1
I0
I1
I1
I1
I1
tp180
I-1
s(I0
I0
I0
I0
I1
I0
I1
I1
tp181
I-1
s(I1
I1
I1
I0
I1
I1
I1
I1
tp182
I127
s(I1
I1
I1
I1
I0
I0
I0
I0
tp183
I15
s(I0
I0
I1
I1
I1
I1
I1
I1
tp184
I63
s(I1
I0
I1
I1
I1
I0
I0
I1
tp185
I-1
s(I1
I1
I0
I0
I1
I0
I0
I1
tp186
I-1
s(I0
I0
I1
I1
I1
I0
I0
I0
tp187
I7
s(I0
I0
I0
I1
I1
I1
I0
I1
tp188
I-1
s(I1
I0
I0
I0
I1
I0
I1
I0
tp189
I-1
s(I1
I0
I1
I1
I0
I1
I0
I0
tp190
I-1
s(I0
I1
I0
I0
I0
I1
I0
I1
tp191
I-1
s(I0
I1
I0
I1
I0
I1
I1
I0
tp192
I-1
s(I1
I0
I1
I0
I0
I0
I0
I0
tp193
I-1
s(I1
I0
I1
I1
I0
I0
I1
I1
tp194
I-1
s(I0
I1
I1
I0
I0
I1
I0
I0
tp195
I-1
s(I1
I1
I1
I0
I1
I0
I0
I0
tp196
I-1
s(I1
I0
I0
I0
I0
I1
I1
I1
tp197
I15
s(I1
I1
I0
I1
I1
I0
I1
I0
tp198
I-1
s(I1
I0
I0
I0
I0
I0
I0
I0
tp199
I1
s(I0
I0
I0
I0
I0
I0
I1
I0
tp200
I1
s(I0
I0
I0
I1
I0
I1
I0
I1
tp201
I-1
s(I0
I0
I0
I0
I0
I1
I1
I0
tp202
I3
s(I1
I0
I0
I1
I0
I0
I0
I1
tp203
I-1
s(I0
I1
I1
I0
I1
I0
I0
I1
tp204
I-1
s(I1
I0
I1
I0
I1
I0
I0
I1
tp205
I-1
s(I1
I0
I1
I1
I0
I1
I1
I0
tp206
I-1
s(I1
I1
I0
I1
I0
I1
I1
I1
tp207
I-1
s(I0
I0
I1
I0
I0
I1
I1
I0
tp208
I-1
s(I0
I0
I1
I1
I0
I1
I0
I1
tp209
I-1
s(I1
I0
I0
I1
I1
I1
I0
I0
tp210
I-1
s(I1
I1
I0
I1
I0
I0
I0
I0
tp211
I-1
s(I1
I1
I0
I0
I0
I0
I0
I1
tp212
I7
s(I0
I1
I0
I0
I1
I0
I0
I0
tp213
I-1
s(I1
I0
I0
I1
I1
I0
I1
I1
tp214
I-1
s(I1
I1
I1
I1
I1
I0
I0
I1
tp215
I63
s(I1
I0
I1
I1
I1
I1
I1
I0
tp216
I-1
s(I0
I1
I0
I0
I1
I1
I1
I1
tp217
I-1
s(I1
I1
I1
I1
I0
I0
I1
I0
tp218
I-1
s(I1
I1
I0
I0
I1
I1
I0
I0
tp219
I-1
s(I0
I0
I1
I1
I1
I1
I0
I1
tp220
I-1
s(I1
I1
I1
I0
I0
I0
I0
I1
tp221
I15
s(I1
I0
I0
I0
I1
I1
I0
I1
tp222
I-1
s(I0
I0
I0
I1
I1
I0
I0
I0
tp223
I3
s(I1
I1
I0
I0
I1
I0
I1
I1
tp224
I-1
s(I0
I1
I0
I0
I0
I0
I1
I0
tp225
I-1
s(I1
I1
I1
I0
I0
I0
I1
I0
tp226
I-1
s(I0
I0
I0
I1
I1
I1
I1
I1
tp227
I31
s(I0
I1
I1
I1
I0
I0
I0
I0
tp228
I7
s(I0
I0
I1
I0
I1
I0
I1
I1
tp229
I-1
s(I0
I1
I1
I0
I0
I0
I0
I1
tp230
I-1
s(I1
I1
I0
I1
I1
I1
I0
I1
tp231
I-1
s(I0
I0
I1
I0
I1
I1
I0
I0
tp232
I-1
s(I0
I0
I0
I1
I0
I0
I1
I0
tp233
I-1
s(I1
I0
I0
I0
I0
I1
I0
I1
tp234
I-1
s(I1
I0
I0
I1
I0
I1
I1
I0
tp235
I-1
s(I0
I1
I0
I1
I0
I0
I1
I0
tp236
I-1
s(I0
I1
I1
I0
I1
I1
I0
I0
tp237
I-1
s(I1
I0
I1
I0
I0
I1
I0
I0
tp238
I-1
s(I0
I0
I1
I0
I0
I0
I0
I1
tp239
I-1
s(I0
I1
I1
I0
I1
I0
I1
I1
tp240
I-1
s(I0
I1
I1
I1
I0
I1
I1
I0
tp241
I-1
s(I0
I0
I1
I1
I0
I0
I0
I0
tp242
I3
s(I0
I1
I0
I1
I1
I1
I1
I1
tp243
I-1
s(I1
I0
I1
I0
I0
I1
I1
I0
tp244
I-1
s(I1
I1
I0
I1
I0
I1
I0
I1
tp245
I-1
s(I1
I1
I0
I0
I0
I1
I1
I0
tp246
I-1
s(I0
I0
I1
I1
I0
I1
I1
I1
tp247
I-1
s(I0
I0
I1
I1
I1
I0
I1
I0
tp248
I-1
s(I0
I1
I0
I1
I1
I0
I0
I0
tp249
I-1
s(I1
I1
I1
I1
I1
I0
I1
I0
tp250
I-1
s(I0
I1
I1
I1
I1
I1
I0
I1
tp251
I-1
s(I1
I1
I1
I0
I0
I1
I1
I0
tp252
I-1
s(I1
I1
I1
I1
I0
I1
I0
I1
tp253
I-1
s(I0
I0
I0
I1
I0
I1
I1
I1
tp254
I-1
s(I0
I0
I0
I0
I1
I1
I1
I1
tp255
I15
s(I0
I1
I1
I0
I1
I1
I1
I1
tp256
I-1
s.